Certificate:
    Data:
        Version: 3 (0x2)
        Serial Number: 1 (0x1)
        Signature Algorithm: sha1WithRSAEncryption
        Issuer: C=BE, ST=Hainaut, O=TrustSpace, OU=TrustSpace Certification, CN=TrustSpace CA for projects
        Validity
            Not Before: Oct 13 18:19:37 2013 GMT
            Not After : Oct 13 18:19:37 2016 GMT
        Subject: O=Nasqueron, CN=Nasqueron CA
        Subject Public Key Info:
            Public Key Algorithm: rsaEncryption
            RSA Public Key: (4096 bit)
                Modulus (4096 bit):
                    00:ce:38:fb:25:b3:b0:34:d8:1f:06:d4:f8:b1:36:
                    c1:cf:b9:ac:b9:d5:a9:0a:46:80:7e:48:7f:6b:ff:
                    97:85:ad:2c:28:86:6e:bf:d7:f3:d9:d6:80:c1:9e:
                    dc:6f:67:b3:a0:aa:97:65:83:8a:2a:4a:6a:f4:3a:
                    21:e8:b2:3d:e5:f3:c8:8d:43:1f:5a:ab:da:bb:92:
                    1d:e6:50:a1:ea:ad:8f:5c:c4:56:28:3c:0c:b4:78:
                    66:f3:44:7f:28:70:bf:fd:96:09:1c:b2:78:ca:36:
                    23:cd:a0:31:ec:31:a9:34:44:65:e0:d0:13:1a:b0:
                    47:ff:82:46:65:18:e5:bc:78:19:4d:11:f7:c6:ac:
                    88:e2:a7:54:c7:b4:b0:5a:39:31:38:77:e0:c8:00:
                    cb:89:f3:f7:d7:0e:e4:c3:e7:e3:b4:24:62:eb:9d:
                    15:31:54:17:d4:31:86:6f:4e:6c:68:3d:8c:18:35:
                    e9:26:19:59:a9:5f:3f:c2:94:50:73:02:a2:71:3e:
                    ed:64:81:f5:c5:13:40:03:54:ec:a2:1c:a0:7b:13:
                    97:88:14:f2:fa:9d:71:91:f6:36:8f:20:cc:ec:4a:
                    18:8c:cd:19:9e:b3:32:12:32:79:fb:b0:ed:7b:08:
                    de:0d:84:b0:bd:1c:2e:35:9a:a1:cc:d5:fb:82:3c:
                    9c:5b:78:9b:a7:a5:4d:91:c5:02:14:e8:f8:47:1a:
                    08:fc:0b:19:a9:7f:70:67:c5:fd:ff:f8:d5:be:b3:
                    97:f2:8f:de:5a:f4:8b:41:d2:82:45:51:62:96:8a:
                    b1:ab:64:49:14:61:58:d8:ec:1c:f4:cd:d3:65:e5:
                    b4:48:84:ad:20:d7:6b:b3:39:41:9e:8f:7e:6d:02:
                    cb:60:42:3b:ec:11:5f:11:fe:0c:e2:5a:ba:db:0d:
                    18:89:bd:07:33:ca:29:1e:22:35:5d:42:00:07:3a:
                    b3:6a:8a:a3:96:c3:e3:b9:c1:cf:9c:05:2d:f3:6f:
                    9a:0a:28:a0:d2:48:40:cf:58:d8:9f:77:92:90:f1:
                    f2:00:34:bc:47:51:6a:51:d0:88:81:2d:c6:66:c1:
                    70:8b:2e:e8:4b:23:1e:9a:08:62:1b:6c:d4:5b:a2:
                    1a:3b:76:b7:68:13:38:ea:67:78:ce:03:e6:9a:88:
                    e7:eb:b8:1a:54:27:19:5b:69:4b:fa:37:09:16:76:
                    94:eb:d1:07:e1:f7:1b:d5:fd:63:70:5d:21:2b:45:
                    09:c2:36:eb:87:05:97:c5:21:20:04:3a:92:b9:12:
                    d8:ce:32:a5:7b:d6:f1:33:de:ce:b7:90:da:05:bd:
                    6f:e9:3a:cf:41:20:4d:ae:15:33:02:ef:cc:f3:16:
                    9a:5e:31
                Exponent: 65537 (0x10001)
        X509v3 extensions:
            X509v3 Subject Key Identifier: 
                0D:DC:59:44:65:4F:1E:B0:F5:03:1B:2B:FE:D9:1A:0A:C0:79:A3:59
            X509v3 Authority Key Identifier: 
                keyid:DF:EE:D4:D3:DF:F2:50:B2:0D:DC:37:F1:6C:CE:0B:4C:F9:E7:C7:E7
                DirName:/C=BE/ST=Hainaut/L=Charleroi/O=TrustSpace/OU=TrustSpace Certification/CN=TrustSpace CA
                serial:02

            X509v3 Basic Constraints: 
                CA:TRUE
    Signature Algorithm: sha1WithRSAEncryption
        63:10:21:71:47:ee:9a:ae:e7:a5:d8:be:5f:c0:b1:d2:53:64:
        28:3d:e8:a5:36:46:5a:ed:9c:6b:4e:5d:c7:26:34:db:66:75:
        d9:85:83:5f:9c:2e:49:27:eb:e0:07:08:f2:0c:99:a9:e9:7a:
        17:a9:2e:e2:bf:07:1d:11:b0:84:79:da:58:b9:6d:0b:f5:f0:
        44:32:c9:d9:8f:ec:f1:73:bd:f8:96:cb:98:2f:09:a9:00:c9:
        2d:d0:45:97:24:ae:e3:75:7b:66:f8:eb:ad:a3:b9:77:bf:aa:
        23:4a:ac:4b:70:2c:42:70:c7:6b:bd:34:de:87:42:ed:f1:77:
        8a:79:8f:ff:3b:25:96:15:de:a1:c3:5f:f0:14:70:70:e5:24:
        da:a3:b9:7f:73:02:c1:1a:33:66:13:c6:7e:5c:07:e6:ed:37:
        97:ee:d4:da:98:72:c2:5a:9f:36:94:df:39:9e:aa:0d:a8:05:
        8e:da:f1:1c:35:76:aa:b5:a6:b2:a4:3b:68:e0:6c:bf:47:b4:
        0b:41:b2:60:28:6c:78:a0:df:0c:fc:59:c8:7a:a5:ba:df:4b:
        ea:6f:44:ec:81:e3:02:85:34:7c:9e:eb:69:20:cd:49:59:68:
        7c:fe:46:a1:51:10:98:ad:c3:b2:89:11:fc:86:05:92:0a:95:
        bb:5e:f2:5d:8b:7c:fe:3d:78:31:71:fe:8e:1a:6c:f7:99:0b:
        53:49:8f:a0:c5:7d:d3:22:c4:8b:af:6b:7f:05:89:85:85:a9:
        df:22:90:49:8f:06:16:73:c3:0a:00:7a:f3:3e:e5:35:03:16:
        84:60:ae:cb:a4:7e:e5:61:18:8c:79:de:d6:56:20:d2:8b:10:
        96:28:fd:02:a3:9d:e3:9c:45:c7:8a:13:29:3e:c2:cf:c8:a5:
        8c:c3:21:a2:22:f8:92:05:a0:bf:5d:e4:5d:7b:d5:6f:78:a2:
        73:ce:98:23:0f:af:36:ed:d1:3d:67:61:8e:8c:19:05:e1:20:
        51:70:9f:da:a8:61:94:f9:56:ea:7a:df:1c:65:7e:f2:af:e5:
        33:ba:e4:f1:fb:23:26:c5:5c:9b:89:13:17:36:55:49:4b:a4:
        90:84:00:9a:82:19:13:55:5e:6d:53:22:71:ff:91:8d:2f:04:
        8e:c5:40:13:83:8d:8f:ba:96:ff:1a:65:64:e7:33:bd:dc:0c:
        82:e2:a4:99:cc:91:40:cc:98:a4:50:86:38:13:a1:fb:4c:4a:
        88:71:ed:c0:a3:0e:ef:44:d8:8b:44:3e:8e:c1:8a:7d:6a:46:
        f2:53:66:d4:8a:81:db:8d:e2:2a:59:8b:29:9b:01:cb:85:fa:
        9a:ea:4d:fe:ae:9a:53:47
-----BEGIN CERTIFICATE-----
MIIGBjCCA+6gAwIBAgIBATANBgkqhkiG9w0BAQUFADB8MQswCQYDVQQGEwJCRTEQ
MA4GA1UECBMHSGFpbmF1dDETMBEGA1UEChMKVHJ1c3RTcGFjZTEhMB8GA1UECxMY
VHJ1c3RTcGFjZSBDZXJ0aWZpY2F0aW9uMSMwIQYDVQQDExpUcnVzdFNwYWNlIENB
IGZvciBwcm9qZWN0czAeFw0xMzEwMTMxODE5MzdaFw0xNjEwMTMxODE5MzdaMCsx
EjAQBgNVBAoTCU5hc3F1ZXJvbjEVMBMGA1UEAxMMTmFzcXVlcm9uIENBMIICIjAN
BgkqhkiG9w0BAQEFAAOCAg8AMIICCgKCAgEAzjj7JbOwNNgfBtT4sTbBz7msudWp
CkaAfkh/a/+Xha0sKIZuv9fz2daAwZ7cb2ezoKqXZYOKKkpq9Doh6LI95fPIjUMf
Wqvau5Id5lCh6q2PXMRWKDwMtHhm80R/KHC//ZYJHLJ4yjYjzaAx7DGpNERl4NAT
GrBH/4JGZRjlvHgZTRH3xqyI4qdUx7SwWjkxOHfgyADLifP31w7kw+fjtCRi650V
MVQX1DGGb05saD2MGDXpJhlZqV8/wpRQcwKicT7tZIH1xRNAA1TsohygexOXiBTy
+p1xkfY2jyDM7EoYjM0ZnrMyEjJ5+7DtewjeDYSwvRwuNZqhzNX7gjycW3ibp6VN
kcUCFOj4RxoI/AsZqX9wZ8X9//jVvrOX8o/eWvSLQdKCRVFiloqxq2RJFGFY2Owc
9M3TZeW0SIStINdrszlBno9+bQLLYEI77BFfEf4M4lq62w0Yib0HM8opHiI1XUIA
BzqzaoqjlsPjucHPnAUt82+aCiig0khAz1jYn3eSkPHyADS8R1FqUdCIgS3GZsFw
iy7oSyMemghiG2zUW6IaO3a3aBM46md4zgPmmojn67gaVCcZW2lL+jcJFnaU69EH
4fcb1f1jcF0hK0UJwjbrhwWXxSEgBDqSuRLYzjKle9bxM97Ot5DaBb1v6TrPQSBN
rhUzAu/M8xaaXjECAwEAAaOB4zCB4DAdBgNVHQ4EFgQUDdxZRGVPHrD1Axsr/tka
CsB5o1kwgbAGA1UdIwSBqDCBpYAU3+7U09/yULIN3DfxbM4LTPnnx+ehgYmkgYYw
gYMxCzAJBgNVBAYTAkJFMRAwDgYDVQQIEwdIYWluYXV0MRIwEAYDVQQHEwlDaGFy
bGVyb2kxEzARBgNVBAoTClRydXN0U3BhY2UxITAfBgNVBAsTGFRydXN0U3BhY2Ug
Q2VydGlmaWNhdGlvbjEWMBQGA1UEAxMNVHJ1c3RTcGFjZSBDQYIBAjAMBgNVHRME
BTADAQH/MA0GCSqGSIb3DQEBBQUAA4ICAQBjECFxR+6aruel2L5fwLHSU2QoPeil
NkZa7ZxrTl3HJjTbZnXZhYNfnC5JJ+vgBwjyDJmp6XoXqS7ivwcdEbCEedpYuW0L
9fBEMsnZj+zxc734lsuYLwmpAMkt0EWXJK7jdXtm+Outo7l3v6ojSqxLcCxCcMdr
vTTeh0Lt8XeKeY//OyWWFd6hw1/wFHBw5STao7l/cwLBGjNmE8Z+XAfm7TeX7tTa
mHLCWp82lN85nqoNqAWO2vEcNXaqtaaypDto4Gy/R7QLQbJgKGx4oN8M/FnIeqW6
30vqb0TsgeMChTR8nutpIM1JWWh8/kahURCYrcOyiRH8hgWSCpW7XvJdi3z+PXgx
cf6OGmz3mQtTSY+gxX3TIsSLr2t/BYmFhanfIpBJjwYWc8MKAHrzPuU1AxaEYK7L
pH7lYRiMed7WViDSixCWKP0Co53jnEXHihMpPsLPyKWMwyGiIviSBaC/XeRde9Vv
eKJzzpgjD6827dE9Z2GOjBkF4SBRcJ/aqGGU+Vbqet8cZX7yr+UzuuTx+yMmxVyb
iRMXNlVJS6SQhACaghkTVV5tUyJx/5GNLwSOxUATg42Pupb/GmVk5zO93AyC4qSZ
zJFAzJikUIY4E6H7TEqIce3Aow7vRNiLRD6OwYp9akbyU2bUioHbjeIqWYspmwHL
hfqa6k3+rppTRw==
-----END CERTIFICATE-----
