Certificate:
    Data:
        Version: 3 (0x2)
        Serial Number: 1 (0x1)
        Signature Algorithm: sha1WithRSAEncryption
        Issuer: C=BE, ST=Hainaut, L=Charleroi, O=TrustSpace, OU=TrustSpace Certification, CN=TrustSpace CA
        Validity
            Not Before: Oct 13 17:36:08 2013 GMT
            Not After : Oct 13 17:36:08 2016 GMT
        Subject: C=BE, ST=Hainaut, O=TrustSpace, OU=TrustSpace Certification, CN=TrustSpace CA for hackerspaces
        Subject Public Key Info:
            Public Key Algorithm: rsaEncryption
            RSA Public Key: (4096 bit)
                Modulus (4096 bit):
                    00:c4:3d:26:aa:fd:11:78:62:f5:9c:c1:8b:4d:05:
                    3e:c5:ed:83:a5:77:aa:78:0b:55:bc:29:2d:da:71:
                    fa:e7:8f:53:7e:7e:c8:a2:19:74:8c:dc:27:ce:08:
                    a4:66:af:0d:f5:77:12:43:16:69:5d:27:1e:d5:c3:
                    a2:29:8d:05:f1:8c:8d:3b:72:af:6e:d2:41:ab:35:
                    f0:f8:66:cd:c4:be:a8:b9:8d:67:ab:b4:07:6b:19:
                    6c:22:8d:0a:f7:cc:f7:54:e3:2f:9f:7b:f0:9f:3e:
                    4b:c1:04:36:fa:d6:76:a9:e2:31:53:66:41:18:61:
                    81:67:ee:ec:1f:22:6f:32:97:20:b5:30:59:38:35:
                    50:fb:aa:ba:ad:90:d9:63:9a:dc:49:a8:36:2b:f0:
                    04:78:17:30:71:3c:e4:20:85:df:c8:e8:69:8d:ed:
                    39:91:06:be:e9:8f:4b:d6:c8:21:cf:75:24:ec:45:
                    3c:ce:49:c2:3a:b5:73:ec:93:00:4a:0b:63:13:55:
                    a2:c5:10:01:ab:55:17:8a:eb:b3:5d:03:7e:8b:8e:
                    54:2e:96:9e:9d:39:ab:9b:80:25:35:11:23:bf:a1:
                    e1:34:26:1f:29:6e:fc:9a:be:45:fd:a8:9b:c8:51:
                    aa:78:60:60:b6:ec:75:8c:5d:95:bd:63:cc:5c:48:
                    1f:e4:a0:ab:b9:df:60:a6:a4:62:c6:a4:c0:15:a8:
                    c9:f5:e6:7e:b4:ee:54:bd:77:6d:4e:d9:4e:40:07:
                    c3:63:db:73:76:b3:59:08:a0:f2:43:4b:3a:e3:4a:
                    a9:7c:ea:05:15:02:2a:bb:a6:56:55:d1:8e:0f:b8:
                    ed:19:dc:bb:1f:cd:67:43:a1:fa:e5:fa:6d:3a:c9:
                    3f:5e:12:20:d9:4e:db:19:1b:b0:50:f0:2a:c1:62:
                    8a:a8:bc:c8:c1:b8:0b:1a:0a:b4:8e:24:92:a6:32:
                    51:b0:74:38:f7:b0:35:32:c2:41:4e:35:75:47:f1:
                    b8:61:04:7d:6a:50:25:40:4a:19:3c:ab:f6:96:e9:
                    73:2e:2b:cf:9e:a6:b1:b1:40:d3:d7:30:9a:9d:d0:
                    9a:91:36:81:df:61:87:79:17:39:34:6d:56:80:6c:
                    91:32:e3:f6:ae:c3:ed:b2:1b:d9:80:5f:b2:21:38:
                    28:23:7a:e3:6f:23:e9:d4:f2:42:b3:e8:5a:02:1d:
                    b7:c1:33:31:86:29:4f:79:f0:14:eb:7c:ad:b3:b0:
                    14:00:e7:49:97:77:30:c6:aa:15:5f:a3:e1:82:80:
                    9c:3b:2f:a4:04:48:72:b6:c9:8c:f6:93:88:38:41:
                    6e:e2:8a:9d:a7:03:66:a0:6f:10:20:af:00:ff:ac:
                    83:6d:23
                Exponent: 65537 (0x10001)
        X509v3 extensions:
            X509v3 Subject Key Identifier: 
                6F:D8:21:5E:6A:9E:63:9A:3D:A3:2D:9A:F7:A8:98:67:08:8E:85:84
            X509v3 Authority Key Identifier: 
                keyid:16:92:1F:1F:2F:95:EB:43:FB:63:F2:8A:A7:EC:66:D8:86:DB:DB:03
                DirName:/C=BE/ST=Hainaut/L=Charleroi/O=TrustSpace/OU=TrustSpace Certification/CN=TrustSpace CA
                serial:A3:BB:4E:5E:52:49:0C:DE

            X509v3 Basic Constraints: 
                CA:TRUE
    Signature Algorithm: sha1WithRSAEncryption
        5b:6f:a9:16:ce:b8:53:51:70:e4:ff:49:cd:d2:3a:73:3e:fa:
        5c:76:28:94:54:6c:7d:82:00:a2:4e:81:76:c0:9c:4f:0d:43:
        9f:29:59:f3:ac:06:44:c0:70:37:ed:dc:22:a3:f2:f6:dc:d0:
        f7:7e:a2:12:a3:d3:34:cf:82:8e:e8:f5:ea:6f:4a:37:e9:0b:
        39:70:7a:63:41:60:0e:64:96:0a:0a:dd:f7:11:34:3c:5f:41:
        e2:64:95:d0:77:5a:3d:68:49:59:4c:93:aa:cc:22:39:d2:7d:
        17:60:ed:19:d4:eb:4c:93:7a:90:9e:15:c0:b9:d9:34:db:ad:
        fd:0c:72:2f:8a:30:80:12:ad:26:5d:94:8f:55:95:65:9f:52:
        51:98:70:b4:e5:d3:33:94:0c:5c:69:9d:b4:d4:99:f4:74:fe:
        cf:09:55:94:7c:99:29:f3:74:b1:8d:83:ad:7a:09:68:0c:03:
        88:13:fe:ea:ee:ae:05:ff:60:86:aa:31:04:58:a2:b2:3d:d1:
        26:ad:23:9c:cc:be:9e:9e:84:06:bc:d6:8d:f8:ba:48:13:16:
        22:3d:ea:9c:2a:01:ab:c8:20:92:ec:af:32:1a:ca:16:b3:aa:
        33:ec:02:93:c8:a8:2a:1f:53:34:7a:1f:82:d0:03:4d:84:c2:
        f2:be:2f:b5:af:92:19:25:9f:70:f5:f2:01:d2:3f:80:1b:c7:
        b3:3c:49:4e:ae:80:d9:34:55:43:0c:ef:77:72:52:ae:76:d1:
        a1:d0:82:d2:7f:4a:89:64:66:df:96:e7:bf:84:f8:70:bb:d1:
        c1:98:4a:74:94:84:2d:71:ba:5c:86:5c:79:22:2c:3d:a2:2a:
        f5:80:76:56:60:7b:c9:ba:48:9e:53:e1:d0:fa:d6:66:ca:68:
        65:a7:c6:2e:3f:df:bf:14:9f:44:89:ea:28:da:5f:60:d8:a2:
        0a:b4:88:d4:b6:1a:f5:00:3c:ec:cf:08:1f:31:e1:3c:fd:e8:
        50:c4:c4:9b:48:e1:7a:17:f6:35:b3:6e:62:7c:4d:df:f6:fd:
        7c:fe:56:66:e7:a9:c7:51:83:e3:c6:1b:18:b9:5d:df:a9:26:
        c5:c4:87:5b:53:72:05:42:0c:a2:18:e4:77:d1:3b:a0:41:a5:
        2c:c5:c2:4d:29:65:b1:bf:5e:89:e6:93:6e:44:70:9c:25:10:
        b0:fb:38:15:b7:91:3f:60:09:06:81:61:29:67:ca:bc:23:3e:
        44:5d:ab:f6:4a:a0:8b:db:cf:c9:21:45:ea:e0:66:54:e0:be:
        2d:6c:26:db:fb:d7:b8:2a:de:34:2c:78:0d:47:96:4a:5d:cf:
        6f:ff:84:01:d3:18:22:1e
-----BEGIN CERTIFICATE-----
MIIGbDCCBFSgAwIBAgIBATANBgkqhkiG9w0BAQUFADCBgzELMAkGA1UEBhMCQkUx
EDAOBgNVBAgTB0hhaW5hdXQxEjAQBgNVBAcTCUNoYXJsZXJvaTETMBEGA1UEChMK
VHJ1c3RTcGFjZTEhMB8GA1UECxMYVHJ1c3RTcGFjZSBDZXJ0aWZpY2F0aW9uMRYw
FAYDVQQDEw1UcnVzdFNwYWNlIENBMB4XDTEzMTAxMzE3MzYwOFoXDTE2MTAxMzE3
MzYwOFowgYAxCzAJBgNVBAYTAkJFMRAwDgYDVQQIEwdIYWluYXV0MRMwEQYDVQQK
EwpUcnVzdFNwYWNlMSEwHwYDVQQLExhUcnVzdFNwYWNlIENlcnRpZmljYXRpb24x
JzAlBgNVBAMTHlRydXN0U3BhY2UgQ0EgZm9yIGhhY2tlcnNwYWNlczCCAiIwDQYJ
KoZIhvcNAQEBBQADggIPADCCAgoCggIBAMQ9Jqr9EXhi9ZzBi00FPsXtg6V3qngL
VbwpLdpx+uePU35+yKIZdIzcJ84IpGavDfV3EkMWaV0nHtXDoimNBfGMjTtyr27S
Qas18PhmzcS+qLmNZ6u0B2sZbCKNCvfM91TjL5978J8+S8EENvrWdqniMVNmQRhh
gWfu7B8ibzKXILUwWTg1UPuquq2Q2WOa3EmoNivwBHgXMHE85CCF38joaY3tOZEG
vumPS9bIIc91JOxFPM5Jwjq1c+yTAEoLYxNVosUQAatVF4rrs10DfouOVC6Wnp05
q5uAJTURI7+h4TQmHylu/Jq+Rf2om8hRqnhgYLbsdYxdlb1jzFxIH+Sgq7nfYKak
YsakwBWoyfXmfrTuVL13bU7ZTkAHw2Pbc3azWQig8kNLOuNKqXzqBRUCKrumVlXR
jg+47Rncux/NZ0Oh+uX6bTrJP14SINlO2xkbsFDwKsFiiqi8yMG4CxoKtI4kkqYy
UbB0OPewNTLCQU41dUfxuGEEfWpQJUBKGTyr9pbpcy4rz56msbFA09cwmp3QmpE2
gd9hh3kXOTRtVoBskTLj9q7D7bIb2YBfsiE4KCN6428j6dTyQrPoWgIdt8EzMYYp
T3nwFOt8rbOwFADnSZd3MMaqFV+j4YKAnDsvpARIcrbJjPaTiDhBbuKKnacDZqBv
ECCvAP+sg20jAgMBAAGjgeswgegwHQYDVR0OBBYEFG/YIV5qnmOaPaMtmveomGcI
joWEMIG4BgNVHSMEgbAwga2AFBaSHx8vletD+2PyiqfsZtiG29sDoYGJpIGGMIGD
MQswCQYDVQQGEwJCRTEQMA4GA1UECBMHSGFpbmF1dDESMBAGA1UEBxMJQ2hhcmxl
cm9pMRMwEQYDVQQKEwpUcnVzdFNwYWNlMSEwHwYDVQQLExhUcnVzdFNwYWNlIENl
cnRpZmljYXRpb24xFjAUBgNVBAMTDVRydXN0U3BhY2UgQ0GCCQCju05eUkkM3jAM
BgNVHRMEBTADAQH/MA0GCSqGSIb3DQEBBQUAA4ICAQBbb6kWzrhTUXDk/0nN0jpz
PvpcdiiUVGx9ggCiToF2wJxPDUOfKVnzrAZEwHA37dwio/L23ND3fqISo9M0z4KO
6PXqb0o36Qs5cHpjQWAOZJYKCt33ETQ8X0HiZJXQd1o9aElZTJOqzCI50n0XYO0Z
1OtMk3qQnhXAudk02639DHIvijCAEq0mXZSPVZVln1JRmHC05dMzlAxcaZ201Jn0
dP7PCVWUfJkp83SxjYOtegloDAOIE/7q7q4F/2CGqjEEWKKyPdEmrSOczL6enoQG
vNaN+LpIExYiPeqcKgGryCCS7K8yGsoWs6oz7AKTyKgqH1M0eh+C0ANNhMLyvi+1
r5IZJZ9w9fIB0j+AG8ezPElOroDZNFVDDO93clKudtGh0ILSf0qJZGbflue/hPhw
u9HBmEp0lIQtcbpchlx5Iiw9oir1gHZWYHvJukieU+HQ+tZmymhlp8YuP9+/FJ9E
ieoo2l9g2KIKtIjUthr1ADzszwgfMeE8/ehQxMSbSOF6F/Y1s25ifE3f9v18/lZm
56nHUYPjxhsYuV3fqSbFxIdbU3IFQgyiGOR30TugQaUsxcJNKWWxv16J5pNuRHCc
JRCw+zgVt5E/YAkGgWEpZ8q8Iz5EXav2SqCL28/JIUXq4GZU4L4tbCbb+9e4Kt40
LHgNR5ZKXc9v/4QB0xgiHg==
-----END CERTIFICATE-----
