Certificate:
    Data:
        Version: 3 (0x2)
        Serial Number: 1 (0x1)
        Signature Algorithm: sha1WithRSAEncryption
        Issuer: C=BE, ST=Hainaut, O=TrustSpace, OU=TrustSpace Certification, CN=TrustSpace CA for hackerspaces
        Validity
            Not Before: Oct 13 18:05:43 2013 GMT
            Not After : Oct 13 18:05:43 2016 GMT
        Subject: C=BE, ST=Hainaut, L=Charleroi, O=Wolfplex, O=Wolfplex Hackerspace ASBL, OU=Wolfplex IT, CN=Wolfplex CA
        Subject Public Key Info:
            Public Key Algorithm: rsaEncryption
            RSA Public Key: (4096 bit)
                Modulus (4096 bit):
                    00:bc:86:56:d3:26:32:29:9d:82:30:7b:03:91:33:
                    db:16:5d:ba:4c:5d:da:60:e4:11:53:b7:78:97:e0:
                    24:bb:a9:e7:bc:7b:72:c3:31:1c:b5:87:ff:eb:e7:
                    72:b5:c3:0b:55:de:a1:9a:e4:d0:e7:a5:8b:fb:e1:
                    49:bd:a3:40:62:fd:0b:7f:51:7e:68:c6:36:92:9a:
                    63:52:70:54:a4:31:4b:b4:5a:12:58:ec:2f:6a:55:
                    ef:78:d4:53:21:b7:d0:72:9c:22:d0:38:fd:96:df:
                    c9:37:25:2b:5a:16:ee:2d:5f:82:cd:3b:de:e6:51:
                    ab:08:96:b6:e7:0d:e0:57:25:19:69:c3:dd:1a:02:
                    01:9a:0a:b1:d8:19:9f:62:e5:a5:26:bb:08:75:a2:
                    d0:3b:c5:d2:6c:5b:7c:bb:82:80:34:fb:52:05:c9:
                    51:45:82:51:91:c5:c2:10:4e:30:34:5e:5f:30:66:
                    6c:cd:29:08:00:71:df:38:15:0d:d2:c8:72:5b:27:
                    ce:a3:b0:e2:88:0c:4f:3a:5c:6b:52:b5:9c:38:5d:
                    32:07:87:5b:00:34:93:c1:d7:cd:5b:88:c8:b8:17:
                    eb:f6:78:05:30:3d:16:5f:23:f7:88:01:85:ea:ea:
                    7a:c2:ce:d0:15:8b:a9:16:6d:ab:e8:d2:10:48:ef:
                    72:8d:f6:55:6b:b9:cf:37:47:dc:c5:32:cc:98:71:
                    ce:eb:01:ce:83:e2:c9:01:cb:70:d7:8d:c3:31:8b:
                    b0:76:39:dd:8e:62:68:c3:33:31:ec:84:6f:53:68:
                    4d:45:2e:4c:e9:51:e5:a6:41:63:1a:9c:55:71:b8:
                    2b:77:f9:07:e0:db:3c:e0:4c:a9:8d:44:eb:46:e5:
                    c9:ff:18:60:07:99:8c:90:0a:3a:1f:e8:d6:a5:36:
                    6a:0e:c4:3c:81:c7:ca:6b:41:55:18:2e:9a:4b:22:
                    1d:24:f1:25:95:fe:4b:5d:6f:30:3b:26:22:bf:92:
                    9d:c1:6d:02:3a:95:bc:df:da:1f:27:30:0d:da:b1:
                    56:eb:32:3a:32:ac:01:18:ea:92:4f:a5:9e:32:9a:
                    14:52:3d:7b:7a:11:a9:4a:2c:3b:c7:a2:20:06:55:
                    ed:84:15:ad:91:b3:4e:48:6f:e6:df:f7:6a:d0:74:
                    6c:d8:b1:ec:49:44:68:93:41:8b:d8:8a:7f:82:7c:
                    df:49:d2:06:e9:26:7a:ad:c8:d3:18:53:68:3a:2d:
                    08:0c:03:51:b6:f0:79:46:e3:42:54:47:52:a6:43:
                    1f:c1:4b:ab:83:ce:43:bb:c9:03:b0:ee:3f:cf:71:
                    c4:92:52:de:b0:bc:b0:6d:f2:55:ae:da:e0:0f:48:
                    8d:9a:bb
                Exponent: 65537 (0x10001)
        X509v3 extensions:
            X509v3 Subject Key Identifier: 
                5D:7A:A6:98:C6:52:4C:4C:59:F7:69:00:BE:D4:2B:75:31:63:2B:1B
            X509v3 Authority Key Identifier: 
                keyid:6F:D8:21:5E:6A:9E:63:9A:3D:A3:2D:9A:F7:A8:98:67:08:8E:85:84
                DirName:/C=BE/ST=Hainaut/L=Charleroi/O=TrustSpace/OU=TrustSpace Certification/CN=TrustSpace CA
                serial:01

            X509v3 Basic Constraints: 
                CA:TRUE
    Signature Algorithm: sha1WithRSAEncryption
        b4:d1:e6:4f:a7:2d:c0:a9:20:a7:81:ec:db:b2:8a:b0:da:b7:
        36:da:1a:c3:b7:35:fa:5a:65:87:8a:2a:05:57:6d:7d:59:9c:
        ef:65:34:b7:e4:74:bf:1a:22:e2:fb:54:cb:ee:2d:40:8d:cc:
        78:a2:59:67:ad:e6:f8:08:f3:93:7c:57:7e:b1:cf:6f:fc:98:
        e2:cc:04:b4:99:1b:5f:6d:dd:55:83:e9:4e:7e:e2:da:5c:51:
        45:46:2c:38:55:7b:54:4d:38:73:2c:b1:9f:f2:49:18:61:6d:
        8d:a0:a9:78:1c:80:02:6d:3c:8c:47:78:5b:92:74:2c:67:ea:
        d0:2c:28:93:1c:63:f1:68:ce:75:e1:23:1c:f8:b5:21:c6:7e:
        7d:8d:d8:41:ea:86:91:75:14:a6:e0:1f:0a:a9:c8:13:23:27:
        5d:62:ba:30:f3:17:15:86:04:10:d7:f0:3f:a7:00:68:1b:39:
        21:8a:81:76:83:eb:d0:05:c5:9b:da:ad:27:92:e1:d5:0a:d1:
        ae:a9:f1:38:80:bb:d2:fb:86:05:cf:f3:f3:d8:be:b5:88:de:
        f9:bd:3c:70:27:e7:5d:91:db:8b:d7:51:4d:3c:99:5b:89:0c:
        0f:b2:2d:12:40:16:f9:6b:78:da:94:36:31:4d:15:91:f1:f1:
        16:3e:8d:69:82:f7:f2:ff:17:28:4d:bb:2d:4c:65:a3:89:b9:
        bc:b9:a4:0a:2e:54:40:25:30:83:9a:25:84:1d:d0:0d:41:c6:
        d2:f8:91:0b:68:86:fe:75:87:bf:d5:8c:9a:67:67:a4:98:4d:
        3d:0a:81:26:2c:33:1e:73:a7:2e:a7:0d:b7:75:46:6b:f6:be:
        a6:4b:42:ba:c3:e2:73:b5:9c:f1:0d:b9:ea:d9:a1:8c:b0:b0:
        95:15:d4:5d:aa:94:c4:83:5d:a9:e8:16:5e:2d:77:84:13:ef:
        2a:94:51:09:fe:de:fd:6f:55:42:61:dd:15:0a:1e:de:8c:f5:
        3e:37:33:14:6f:1a:fb:c5:6a:2f:17:32:e1:0d:96:b6:9b:b7:
        49:08:1c:40:1b:1c:30:b0:2c:c3:48:ab:68:6d:cd:60:05:f3:
        3d:d7:67:d1:59:3e:d6:fb:9f:29:8b:53:09:9d:fd:fa:f1:c9:
        ce:34:e6:ac:12:71:0f:bf:c9:bc:d4:b7:a4:b9:f1:f9:39:7a:
        1a:61:99:ad:92:04:42:a6:85:4d:34:e9:4b:c7:40:22:d5:11:
        26:96:6a:e7:67:76:69:c6:17:c8:1f:9a:ee:80:7e:30:70:57:
        5e:ed:90:4d:bc:9b:b5:c7:a7:6c:56:34:05:6a:c0:a3:89:8e:
        9c:f0:f8:82:cc:c9:e9:b0
-----BEGIN CERTIFICATE-----
MIIGdzCCBF+gAwIBAgIBATANBgkqhkiG9w0BAQUFADCBgDELMAkGA1UEBhMCQkUx
EDAOBgNVBAgTB0hhaW5hdXQxEzARBgNVBAoTClRydXN0U3BhY2UxITAfBgNVBAsT
GFRydXN0U3BhY2UgQ2VydGlmaWNhdGlvbjEnMCUGA1UEAxMeVHJ1c3RTcGFjZSBD
QSBmb3IgaGFja2Vyc3BhY2VzMB4XDTEzMTAxMzE4MDU0M1oXDTE2MTAxMzE4MDU0
M1owgZYxCzAJBgNVBAYTAkJFMRAwDgYDVQQIEwdIYWluYXV0MRIwEAYDVQQHEwlD
aGFybGVyb2kxETAPBgNVBAoTCFdvbGZwbGV4MSIwIAYDVQQKExlXb2xmcGxleCBI
YWNrZXJzcGFjZSBBU0JMMRQwEgYDVQQLEwtXb2xmcGxleCBJVDEUMBIGA1UEAxML
V29sZnBsZXggQ0EwggIiMA0GCSqGSIb3DQEBAQUAA4ICDwAwggIKAoICAQC8hlbT
JjIpnYIwewORM9sWXbpMXdpg5BFTt3iX4CS7qee8e3LDMRy1h//r53K1wwtV3qGa
5NDnpYv74Um9o0Bi/Qt/UX5oxjaSmmNScFSkMUu0WhJY7C9qVe941FMht9BynCLQ
OP2W38k3JStaFu4tX4LNO97mUasIlrbnDeBXJRlpw90aAgGaCrHYGZ9i5aUmuwh1
otA7xdJsW3y7goA0+1IFyVFFglGRxcIQTjA0Xl8wZmzNKQgAcd84FQ3SyHJbJ86j
sOKIDE86XGtStZw4XTIHh1sANJPB181biMi4F+v2eAUwPRZfI/eIAYXq6nrCztAV
i6kWbavo0hBI73KN9lVruc83R9zFMsyYcc7rAc6D4skBy3DXjcMxi7B2Od2OYmjD
MzHshG9TaE1FLkzpUeWmQWManFVxuCt3+Qfg2zzgTKmNROtG5cn/GGAHmYyQCjof
6NalNmoOxDyBx8prQVUYLppLIh0k8SWV/ktdbzA7JiK/kp3BbQI6lbzf2h8nMA3a
sVbrMjoyrAEY6pJPpZ4ymhRSPXt6EalKLDvHoiAGVe2EFa2Rs05Ib+bf92rQdGzY
sexJRGiTQYvYin+CfN9J0gbpJnqtyNMYU2g6LQgMA1G28HlG40JUR1KmQx/BS6uD
zkO7yQOw7j/PccSSUt6wvLBt8lWu2uAPSI2auwIDAQABo4HjMIHgMB0GA1UdDgQW
BBRdeqaYxlJMTFn3aQC+1Ct1MWMrGzCBsAYDVR0jBIGoMIGlgBRv2CFeap5jmj2j
LZr3qJhnCI6FhKGBiaSBhjCBgzELMAkGA1UEBhMCQkUxEDAOBgNVBAgTB0hhaW5h
dXQxEjAQBgNVBAcTCUNoYXJsZXJvaTETMBEGA1UEChMKVHJ1c3RTcGFjZTEhMB8G
A1UECxMYVHJ1c3RTcGFjZSBDZXJ0aWZpY2F0aW9uMRYwFAYDVQQDEw1UcnVzdFNw
YWNlIENBggEBMAwGA1UdEwQFMAMBAf8wDQYJKoZIhvcNAQEFBQADggIBALTR5k+n
LcCpIKeB7NuyirDatzbaGsO3NfpaZYeKKgVXbX1ZnO9lNLfkdL8aIuL7VMvuLUCN
zHiiWWet5vgI85N8V36xz2/8mOLMBLSZG19t3VWD6U5+4tpcUUVGLDhVe1RNOHMs
sZ/ySRhhbY2gqXgcgAJtPIxHeFuSdCxn6tAsKJMcY/FoznXhIxz4tSHGfn2N2EHq
hpF1FKbgHwqpyBMjJ11iujDzFxWGBBDX8D+nAGgbOSGKgXaD69AFxZvarSeS4dUK
0a6p8TiAu9L7hgXP8/PYvrWI3vm9PHAn512R24vXUU08mVuJDA+yLRJAFvlreNqU
NjFNFZHx8RY+jWmC9/L/FyhNuy1MZaOJuby5pAouVEAlMIOaJYQd0A1BxtL4kQto
hv51h7/VjJpnZ6SYTT0KgSYsMx5zpy6nDbd1Rmv2vqZLQrrD4nO1nPENuerZoYyw
sJUV1F2qlMSDXanoFl4td4QT7yqUUQn+3v1vVUJh3RUKHt6M9T43MxRvGvvFai8X
MuENlrabt0kIHEAbHDCwLMNIq2htzWAF8z3XZ9FZPtb7nymLUwmd/frxyc405qwS
cQ+/ybzUt6S58fk5ehphma2SBEKmhU006UvHQCLVESaWaudndmnGF8gfmu6AfjBw
V17tkE28m7XHp2xWNAVqwKOJjpzw+ILMyemw
-----END CERTIFICATE-----
